; Function Attrs: nounwind sspstrong uwtable
define internal i64 @nurat_round_half_even(i64 noundef %0) #0 {
  %2 = inttoptr i64 %0 to ptr
  %3 = getelementptr inbounds nuw i8, ptr %2, i64 16
  %4 = load i64, ptr %3, align 8, !tbaa !19
  %5 = getelementptr inbounds nuw i8, ptr %2, i64 24
  %6 = load i64, ptr %5, align 8, !tbaa !21
  %7 = and i64 %4, 1
  %.not.i = icmp eq i64 %7, 0
  br i1 %.not.i, label %INT_NEGATIVE_P.exit, label %8

8:                                                ; preds = %1
  %9 = icmp slt i64 %4, 0
  br i1 %9, label %13, label %15

INT_NEGATIVE_P.exit:                              ; preds = %1
  %10 = inttoptr i64 %4 to ptr
  %11 = load i64, ptr %10, align 8, !tbaa !7
  %12 = and i64 %11, 8192
  %.not.i.i = icmp eq i64 %12, 0
  br i1 %.not.i.i, label %13, label %15

13:                                               ; preds = %8, %INT_NEGATIVE_P.exit
  %14 = tail call i64 @rb_int_uminus(i64 noundef %4) #17
  br label %15

15:                                               ; preds = %8, %13, %INT_NEGATIVE_P.exit
  %.0.i22 = phi i1 [ true, %13 ], [ false, %INT_NEGATIVE_P.exit ], [ false, %8 ]
  %.0 = phi i64 [ %14, %13 ], [ %4, %INT_NEGATIVE_P.exit ], [ %4, %8 ]
  %16 = tail call i64 @rb_int_mul(i64 noundef %.0, i64 noundef 5) #17
  %17 = tail call i64 @rb_int_plus(i64 noundef %16, i64 noundef %6) #17
  %18 = tail call i64 @rb_int_mul(i64 noundef %6, i64 noundef 5) #17
  %19 = tail call i64 @rb_int_divmod(i64 noundef %17, i64 noundef %18) #17
  %20 = inttoptr i64 %19 to ptr
  %21 = load i64, ptr %20, align 8, !tbaa !7
  %22 = and i64 %21, 8192
  %.not.i.i18 = icmp eq i64 %22, 0
  br i1 %.not.i.i18, label %25, label %23

23:                                               ; preds = %15
  %24 = getelementptr inbounds nuw i8, ptr %20, i64 16
  br label %RARRAY_AREF.exit21

25:                                               ; preds = %15
  %26 = getelementptr inbounds nuw i8, ptr %20, i64 32
  %27 = load ptr, ptr %26, align 8, !tbaa !12
  br label %RARRAY_AREF.exit21

RARRAY_AREF.exit21:                               ; preds = %23, %25
  %.in = phi ptr [ %24, %23 ], [ %27, %25 ]
  %28 = load i64, ptr %.in, align 8, !tbaa !18
  %29 = getelementptr i8, ptr %.in, i64 8
  %30 = load i64, ptr %29, align 8, !tbaa !18
  %31 = and i64 %30, 1
  %.not25 = icmp eq i64 %31, 0
  br i1 %.not25, label %34, label %32

32:                                               ; preds = %RARRAY_AREF.exit21
  %33 = icmp eq i64 %30, 1
  br i1 %33, label %36, label %38

34:                                               ; preds = %RARRAY_AREF.exit21
  %35 = tail call i32 @rb_bigzero_p(i64 noundef %30) #17
  %.not = icmp eq i32 %35, 0
  br i1 %.not, label %38, label %36

36:                                               ; preds = %34, %32
  %37 = tail call i64 @rb_int_and(i64 noundef %28, i64 noundef -3) #17
  br label %38

38:                                               ; preds = %36, %34, %32
  %.1 = phi i64 [ %37, %36 ], [ %28, %32 ], [ %28, %34 ]
  br i1 %.0.i22, label %39, label %41

39:                                               ; preds = %38
  %40 = tail call i64 @rb_int_uminus(i64 noundef %.1) #17
  br label %41

41:                                               ; preds = %39, %38
  %.2 = phi i64 [ %40, %39 ], [ %.1, %38 ]
  ret i64 %.2
}